; Function Attrs: nounwind uwtable
define range(i32 0, 2) i32 @X509_NAME_add_entry_by_NID(ptr noundef captures(address_is_null) %0, i32 noundef %1, i32 noundef %2, ptr noundef %3, i32 noundef %4, i32 noundef %5, i32 noundef %6) local_unnamed_addr #0 {
  %8 = tail call ptr @X509_NAME_ENTRY_create_by_NID(ptr noundef null, i32 noundef %1, i32 noundef %2, ptr noundef %3, i32 noundef %4)
  %.not = icmp eq ptr %8, null
  br i1 %.not, label %11, label %9

9:                                                ; preds = %7
  %10 = tail call i32 @X509_NAME_add_entry(ptr noundef %0, ptr noundef nonnull %8, i32 noundef %5, i32 noundef %6)
  tail call void @X509_NAME_ENTRY_free(ptr noundef nonnull %8) #6
  br label %11

11:                                               ; preds = %7, %9
  %.0 = phi i32 [ %10, %9 ], [ 0, %7 ]
  ret i32 %.0
}